target datalayout = "e-m:e-p270:32:32-p271:32:32-p272:64:64-i64:64-i128:128-f80:128-n8:16:32:64-S128"
target triple = "x86_64-pc-linux-gnu"

%struct.AVFilterContext = type { ptr, ptr, ptr, ptr, ptr, i32, ptr, ptr, i32, ptr, ptr, i32, i32, ptr, ptr, ptr, ptr, i32, ptr, i32, i32 }
%struct.ColorCorrectContext = type { ptr, float, float, float, float, float, i32, i32, float, float, i32, i32, [4 x i32], [4 x i32], ptr, ptr, ptr, ptr, ptr }
%struct.AVChannelLayout = type { i32, i32, %union.anon.1, ptr }
%union.anon.1 = type { i64 }
%struct.AVRational = type { i32, i32 }
%struct.AVFrame = type { [8 x ptr], [8 x i32], ptr, i32, i32, i32, i32, i32, %struct.AVRational, i64, i64, %struct.AVRational, i32, ptr, i32, i32, [8 x ptr], ptr, i32, ptr, i32, i32, i32, i32, i32, i32, i32, i64, ptr, i32, ptr, ptr, i64, i64, i64, i64, ptr, %struct.AVChannelLayout, i64 }

; Function Attrs: nounwind uwtable
define internal i32 @median_16(ptr noundef %0, ptr noundef %1, i32 noundef %2, i32 noundef %3) #2 {
  %5 = alloca ptr, align 8
  %6 = alloca ptr, align 8
  %7 = alloca i32, align 4
  %8 = alloca i32, align 4
  %9 = alloca ptr, align 8
  %10 = alloca ptr, align 8
  %11 = alloca float, align 4
  %12 = alloca i32, align 4
  %13 = alloca i32, align 4
  %14 = alloca i64, align 8
  %15 = alloca i64, align 8
  %16 = alloca ptr, align 8
  %17 = alloca ptr, align 8
  %18 = alloca ptr, align 8
  %19 = alloca ptr, align 8
  %20 = alloca i32, align 4
  %21 = alloca i32, align 4
  %22 = alloca i32, align 4
  %23 = alloca i32, align 4
  %24 = alloca i32, align 4
  %25 = alloca i32, align 4
  %26 = alloca i32, align 4
  %27 = alloca i32, align 4
  %28 = alloca i32, align 4
  %29 = alloca i32, align 4
  store ptr %0, ptr %5, align 8, !tbaa !4
  store ptr %1, ptr %6, align 8, !tbaa !71
  store i32 %2, ptr %7, align 4, !tbaa !41
  store i32 %3, ptr %8, align 4, !tbaa !41
  call void @llvm.lifetime.start.p0(i64 8, ptr %9) #9
  %30 = load ptr, ptr %5, align 8, !tbaa !4
  %31 = getelementptr inbounds nuw %struct.AVFilterContext, ptr %30, i32 0, i32 9
  %32 = load ptr, ptr %31, align 8, !tbaa !9
  store ptr %32, ptr %9, align 8, !tbaa !22
  call void @llvm.lifetime.start.p0(i64 8, ptr %10) #9
  %33 = load ptr, ptr %6, align 8, !tbaa !71
  store ptr %33, ptr %10, align 8, !tbaa !26
  call void @llvm.lifetime.start.p0(i64 4, ptr %11) #9
  %34 = load ptr, ptr %9, align 8, !tbaa !22
  %35 = getelementptr inbounds nuw %struct.ColorCorrectContext, ptr %34, i32 0, i32 9
  %36 = load float, ptr %35, align 8, !tbaa !60
  store float %36, ptr %11, align 4, !tbaa !42
  call void @llvm.lifetime.start.p0(i64 4, ptr %12) #9
  %37 = load ptr, ptr %9, align 8, !tbaa !22
  %38 = getelementptr inbounds nuw %struct.ColorCorrectContext, ptr %37, i32 0, i32 13
  %39 = getelementptr inbounds [4 x i32], ptr %38, i64 0, i64 1
  %40 = load i32, ptr %39, align 4, !tbaa !41
  store i32 %40, ptr %12, align 4, !tbaa !41
  call void @llvm.lifetime.start.p0(i64 4, ptr %13) #9
  %41 = load ptr, ptr %9, align 8, !tbaa !22
  %42 = getelementptr inbounds nuw %struct.ColorCorrectContext, ptr %41, i32 0, i32 12
  %43 = getelementptr inbounds [4 x i32], ptr %42, i64 0, i64 1
  %44 = load i32, ptr %43, align 4, !tbaa !41
  store i32 %44, ptr %13, align 4, !tbaa !41
  call void @llvm.lifetime.start.p0(i64 8, ptr %14) #9
  %45 = load ptr, ptr %10, align 8, !tbaa !26
  %46 = getelementptr inbounds nuw %struct.AVFrame, ptr %45, i32 0, i32 1
  %47 = getelementptr inbounds [8 x i32], ptr %46, i64 0, i64 1
  %48 = load i32, ptr %47, align 4, !tbaa !41
  %49 = sdiv i32 %48, 2
  %50 = sext i32 %49 to i64
  store i64 %50, ptr %14, align 8, !tbaa !72
  call void @llvm.lifetime.start.p0(i64 8, ptr %15) #9
  %51 = load ptr, ptr %10, align 8, !tbaa !26
  %52 = getelementptr inbounds nuw %struct.AVFrame, ptr %51, i32 0, i32 1
  %53 = getelementptr inbounds [8 x i32], ptr %52, i64 0, i64 2
  %54 = load i32, ptr %53, align 8, !tbaa !41
  %55 = sdiv i32 %54, 2
  %56 = sext i32 %55 to i64
  store i64 %56, ptr %15, align 8, !tbaa !72
  call void @llvm.lifetime.start.p0(i64 8, ptr %16) #9
  %57 = load ptr, ptr %10, align 8, !tbaa !26
  %58 = getelementptr inbounds nuw %struct.AVFrame, ptr %57, i32 0, i32 0
  %59 = getelementptr inbounds [8 x ptr], ptr %58, i64 0, i64 1
  %60 = load ptr, ptr %59, align 8, !tbaa !73
  store ptr %60, ptr %16, align 8, !tbaa !78
  call void @llvm.lifetime.start.p0(i64 8, ptr %17) #9
  %61 = load ptr, ptr %10, align 8, !tbaa !26
  %62 = getelementptr inbounds nuw %struct.AVFrame, ptr %61, i32 0, i32 0
  %63 = getelementptr inbounds [8 x ptr], ptr %62, i64 0, i64 2
  %64 = load ptr, ptr %63, align 8, !tbaa !73
  store ptr %64, ptr %17, align 8, !tbaa !78
  call void @llvm.lifetime.start.p0(i64 8, ptr %18) #9
  %65 = load ptr, ptr %9, align 8, !tbaa !22
  %66 = getelementptr inbounds nuw %struct.ColorCorrectContext, ptr %65, i32 0, i32 14
  %67 = load ptr, ptr %66, align 8, !tbaa !61
  store ptr %67, ptr %18, align 8, !tbaa !92
  call void @llvm.lifetime.start.p0(i64 8, ptr %19) #9
  %68 = load ptr, ptr %9, align 8, !tbaa !22
  %69 = getelementptr inbounds nuw %struct.ColorCorrectContext, ptr %68, i32 0, i32 15
  %70 = load ptr, ptr %69, align 8, !tbaa !62
  store ptr %70, ptr %19, align 8, !tbaa !92
  call void @llvm.lifetime.start.p0(i64 4, ptr %20) #9
  %71 = load i32, ptr %12, align 4, !tbaa !41
  %72 = load i32, ptr %13, align 4, !tbaa !41
  %73 = mul nsw i32 %71, %72
  %74 = sdiv i32 %73, 2
  store i32 %74, ptr %20, align 4, !tbaa !41
  call void @llvm.lifetime.start.p0(i64 4, ptr %21) #9
  %75 = load ptr, ptr %9, align 8, !tbaa !22
  %76 = getelementptr inbounds nuw %struct.ColorCorrectContext, ptr %75, i32 0, i32 8
  %77 = load float, ptr %76, align 4, !tbaa !59
  %78 = fptosi float %77 to i32
  store i32 %78, ptr %21, align 4, !tbaa !41
  call void @llvm.lifetime.start.p0(i64 4, ptr %22) #9
  %79 = load ptr, ptr %9, align 8, !tbaa !22
  %80 = getelementptr inbounds nuw %struct.ColorCorrectContext, ptr %79, i32 0, i32 8
  %81 = load float, ptr %80, align 4, !tbaa !59
  %82 = fptosi float %81 to i32
  store i32 %82, ptr %22, align 4, !tbaa !41
  call void @llvm.lifetime.start.p0(i64 4, ptr %23) #9
  store i32 0, ptr %23, align 4, !tbaa !41
  call void @llvm.lifetime.start.p0(i64 4, ptr %24) #9
  store i32 0, ptr %24, align 4, !tbaa !41
  %83 = load ptr, ptr %18, align 8, !tbaa !92
  %84 = load ptr, ptr %9, align 8, !tbaa !22
  %85 = getelementptr inbounds nuw %struct.ColorCorrectContext, ptr %84, i32 0, i32 8
  %86 = load float, ptr %85, align 4, !tbaa !59
  %87 = fadd nsz float %86, 1.000000e+00
  %88 = fmul nsz float 4.000000e+00, %87
  %89 = fptoui float %88 to i64
  call void @llvm.memset.p0.i64(ptr align 4 %83, i8 0, i64 %89, i1 false)
  %90 = load ptr, ptr %19, align 8, !tbaa !92
  %91 = load ptr, ptr %9, align 8, !tbaa !22
  %92 = getelementptr inbounds nuw %struct.ColorCorrectContext, ptr %91, i32 0, i32 8
  %93 = load float, ptr %92, align 4, !tbaa !59
  %94 = fadd nsz float %93, 1.000000e+00
  %95 = fmul nsz float 4.000000e+00, %94
  %96 = fptoui float %95 to i64
  call void @llvm.memset.p0.i64(ptr align 4 %90, i8 0, i64 %96, i1 false)
  call void @llvm.lifetime.start.p0(i64 4, ptr %25) #9
  store i32 0, ptr %25, align 4, !tbaa !41
  br label %97

97:                                               ; preds = %139, %4
  %98 = load i32, ptr %25, align 4, !tbaa !41
  %99 = load i32, ptr %13, align 4, !tbaa !41
  %100 = icmp slt i32 %98, %99
  br i1 %100, label %102, label %101

101:                                              ; preds = %97
  store i32 2, ptr %26, align 4
  call void @llvm.lifetime.end.p0(i64 4, ptr %25) #9
  br label %142

102:                                              ; preds = %97
  call void @llvm.lifetime.start.p0(i64 4, ptr %27) #9
  store i32 0, ptr %27, align 4, !tbaa !41
  br label %103

103:                                              ; preds = %129, %102
  %104 = load i32, ptr %27, align 4, !tbaa !41
  %105 = load i32, ptr %12, align 4, !tbaa !41
  %106 = icmp slt i32 %104, %105
  br i1 %106, label %108, label %107

107:                                              ; preds = %103
  store i32 5, ptr %26, align 4
  call void @llvm.lifetime.end.p0(i64 4, ptr %27) #9
  br label %132

108:                                              ; preds = %103
  %109 = load ptr, ptr %18, align 8, !tbaa !92
  %110 = load ptr, ptr %16, align 8, !tbaa !78
  %111 = load i32, ptr %27, align 4, !tbaa !41
  %112 = sext i32 %111 to i64
  %113 = getelementptr inbounds i16, ptr %110, i64 %112
  %114 = load i16, ptr %113, align 2, !tbaa !80
  %115 = zext i16 %114 to i64
  %116 = getelementptr inbounds nuw i32, ptr %109, i64 %115
  %117 = load i32, ptr %116, align 4, !tbaa !41
  %118 = add i32 %117, 1
  store i32 %118, ptr %116, align 4, !tbaa !41
  %119 = load ptr, ptr %19, align 8, !tbaa !92
  %120 = load ptr, ptr %17, align 8, !tbaa !78
  %121 = load i32, ptr %27, align 4, !tbaa !41
  %122 = sext i32 %121 to i64
  %123 = getelementptr inbounds i16, ptr %120, i64 %122
  %124 = load i16, ptr %123, align 2, !tbaa !80
  %125 = zext i16 %124 to i64
  %126 = getelementptr inbounds nuw i32, ptr %119, i64 %125
  %127 = load i32, ptr %126, align 4, !tbaa !41
  %128 = add i32 %127, 1
  store i32 %128, ptr %126, align 4, !tbaa !41
  br label %129

129:                                              ; preds = %108
  %130 = load i32, ptr %27, align 4, !tbaa !41
  %131 = add nsw i32 %130, 1
  store i32 %131, ptr %27, align 4, !tbaa !41
  br label %103, !llvm.loop !97

132:                                              ; preds = %107
  %133 = load i64, ptr %14, align 8, !tbaa !72
  %134 = load ptr, ptr %16, align 8, !tbaa !78
  %135 = getelementptr inbounds i16, ptr %134, i64 %133
  store ptr %135, ptr %16, align 8, !tbaa !78
  %136 = load i64, ptr %15, align 8, !tbaa !72
  %137 = load ptr, ptr %17, align 8, !tbaa !78
  %138 = getelementptr inbounds i16, ptr %137, i64 %136
  store ptr %138, ptr %17, align 8, !tbaa !78
  br label %139

139:                                              ; preds = %132
  %140 = load i32, ptr %25, align 4, !tbaa !41
  %141 = add nsw i32 %140, 1
  store i32 %141, ptr %25, align 4, !tbaa !41
  br label %97, !llvm.loop !98

142:                                              ; preds = %101
  call void @llvm.lifetime.start.p0(i64 4, ptr %28) #9
  store i32 0, ptr %28, align 4, !tbaa !41
  br label %143

143:                                              ; preds = %166, %142
  %144 = load i32, ptr %28, align 4, !tbaa !41
  %145 = sitofp i32 %144 to float
  %146 = load ptr, ptr %9, align 8, !tbaa !22
  %147 = getelementptr inbounds nuw %struct.ColorCorrectContext, ptr %146, i32 0, i32 8
  %148 = load float, ptr %147, align 4, !tbaa !59
  %149 = fadd nsz float %148, 1.000000e+00
  %150 = fcmp nsz olt float %145, %149
  br i1 %150, label %152, label %151

151:                                              ; preds = %143
  store i32 8, ptr %26, align 4
  br label %169

152:                                              ; preds = %143
  %153 = load ptr, ptr %18, align 8, !tbaa !92
  %154 = load i32, ptr %28, align 4, !tbaa !41
  %155 = sext i32 %154 to i64
  %156 = getelementptr inbounds i32, ptr %153, i64 %155
  %157 = load i32, ptr %156, align 4, !tbaa !41
  %158 = load i32, ptr %23, align 4, !tbaa !41
  %159 = add i32 %158, %157
  store i32 %159, ptr %23, align 4, !tbaa !41
  %160 = load i32, ptr %23, align 4, !tbaa !41
  %161 = load i32, ptr %20, align 4, !tbaa !41
  %162 = icmp uge i32 %160, %161
  br i1 %162, label %163, label %165

163:                                              ; preds = %152
  %164 = load i32, ptr %28, align 4, !tbaa !41
  store i32 %164, ptr %21, align 4, !tbaa !41
  store i32 8, ptr %26, align 4
  br label %169

165:                                              ; preds = %152
  br label %166

166:                                              ; preds = %165
  %167 = load i32, ptr %28, align 4, !tbaa !41
  %168 = add nsw i32 %167, 1
  store i32 %168, ptr %28, align 4, !tbaa !41
  br label %143, !llvm.loop !99

169:                                              ; preds = %163, %151
  call void @llvm.lifetime.end.p0(i64 4, ptr %28) #9
  br label %170

170:                                              ; preds = %169
  call void @llvm.lifetime.start.p0(i64 4, ptr %29) #9
  store i32 0, ptr %29, align 4, !tbaa !41
  br label %171

171:                                              ; preds = %194, %170
  %172 = load i32, ptr %29, align 4, !tbaa !41
  %173 = sitofp i32 %172 to float
  %174 = load ptr, ptr %9, align 8, !tbaa !22
  %175 = getelementptr inbounds nuw %struct.ColorCorrectContext, ptr %174, i32 0, i32 8
  %176 = load float, ptr %175, align 4, !tbaa !59
  %177 = fadd nsz float %176, 1.000000e+00
  %178 = fcmp nsz olt float %173, %177
  br i1 %178, label %180, label %179

179:                                              ; preds = %171
  store i32 11, ptr %26, align 4
  br label %197

180:                                              ; preds = %171
  %181 = load ptr, ptr %19, align 8, !tbaa !92
  %182 = load i32, ptr %29, align 4, !tbaa !41
  %183 = sext i32 %182 to i64
  %184 = getelementptr inbounds i32, ptr %181, i64 %183
  %185 = load i32, ptr %184, align 4, !tbaa !41
  %186 = load i32, ptr %24, align 4, !tbaa !41
  %187 = add i32 %186, %185
  store i32 %187, ptr %24, align 4, !tbaa !41
  %188 = load i32, ptr %24, align 4, !tbaa !41
  %189 = load i32, ptr %20, align 4, !tbaa !41
  %190 = icmp uge i32 %188, %189
  br i1 %190, label %191, label %193

191:                                              ; preds = %180
  %192 = load i32, ptr %29, align 4, !tbaa !41
  store i32 %192, ptr %22, align 4, !tbaa !41
  store i32 11, ptr %26, align 4
  br label %197

193:                                              ; preds = %180
  br label %194

194:                                              ; preds = %193
  %195 = load i32, ptr %29, align 4, !tbaa !41
  %196 = add nsw i32 %195, 1
  store i32 %196, ptr %29, align 4, !tbaa !41
  br label %171, !llvm.loop !100

197:                                              ; preds = %191, %179
  call void @llvm.lifetime.end.p0(i64 4, ptr %29) #9
  br label %198

198:                                              ; preds = %197
  %199 = load float, ptr %11, align 4, !tbaa !42
  %200 = load i32, ptr %21, align 4, !tbaa !41
  %201 = sitofp i32 %200 to float
  %202 = call nsz float @llvm.fmuladd.f32(float %199, float %201, float -5.000000e-01)
  %203 = load ptr, ptr %9, align 8, !tbaa !22
  %204 = getelementptr inbounds nuw %struct.ColorCorrectContext, ptr %203, i32 0, i32 16
  %205 = load ptr, ptr %204, align 8, !tbaa !44
  %206 = getelementptr inbounds [4 x float], ptr %205, i64 0
  %207 = getelementptr inbounds [4 x float], ptr %206, i64 0, i64 0
  store float %202, ptr %207, align 4, !tbaa !42
  %208 = load float, ptr %11, align 4, !tbaa !42
  %209 = load i32, ptr %22, align 4, !tbaa !41
  %210 = sitofp i32 %209 to float
  %211 = call nsz float @llvm.fmuladd.f32(float %208, float %210, float -5.000000e-01)
  %212 = load ptr, ptr %9, align 8, !tbaa !22
  %213 = getelementptr inbounds nuw %struct.ColorCorrectContext, ptr %212, i32 0, i32 16
  %214 = load ptr, ptr %213, align 8, !tbaa !44
  %215 = getelementptr inbounds [4 x float], ptr %214, i64 0
  %216 = getelementptr inbounds [4 x float], ptr %215, i64 0, i64 1
  store float %211, ptr %216, align 4, !tbaa !42
  %217 = load float, ptr %11, align 4, !tbaa !42
  %218 = load i32, ptr %21, align 4, !tbaa !41
  %219 = sitofp i32 %218 to float
  %220 = call nsz float @llvm.fmuladd.f32(float %217, float %219, float -5.000000e-01)
  %221 = load ptr, ptr %9, align 8, !tbaa !22
  %222 = getelementptr inbounds nuw %struct.ColorCorrectContext, ptr %221, i32 0, i32 16
  %223 = load ptr, ptr %222, align 8, !tbaa !44
  %224 = getelementptr inbounds [4 x float], ptr %223, i64 0
  %225 = getelementptr inbounds [4 x float], ptr %224, i64 0, i64 2
  store float %220, ptr %225, align 4, !tbaa !42
  %226 = load float, ptr %11, align 4, !tbaa !42
  %227 = load i32, ptr %22, align 4, !tbaa !41
  %228 = sitofp i32 %227 to float
  %229 = call nsz float @llvm.fmuladd.f32(float %226, float %228, float -5.000000e-01)
  %230 = load ptr, ptr %9, align 8, !tbaa !22
  %231 = getelementptr inbounds nuw %struct.ColorCorrectContext, ptr %230, i32 0, i32 16
  %232 = load ptr, ptr %231, align 8, !tbaa !44
  %233 = getelementptr inbounds [4 x float], ptr %232, i64 0
  %234 = getelementptr inbounds [4 x float], ptr %233, i64 0, i64 3
  store float %229, ptr %234, align 4, !tbaa !42
  store i32 1, ptr %26, align 4
  call void @llvm.lifetime.end.p0(i64 4, ptr %24) #9
  call void @llvm.lifetime.end.p0(i64 4, ptr %23) #9
  call void @llvm.lifetime.end.p0(i64 4, ptr %22) #9
  call void @llvm.lifetime.end.p0(i64 4, ptr %21) #9
  call void @llvm.lifetime.end.p0(i64 4, ptr %20) #9
  call void @llvm.lifetime.end.p0(i64 8, ptr %19) #9
  call void @llvm.lifetime.end.p0(i64 8, ptr %18) #9
  call void @llvm.lifetime.end.p0(i64 8, ptr %17) #9
  call void @llvm.lifetime.end.p0(i64 8, ptr %16) #9
  call void @llvm.lifetime.end.p0(i64 8, ptr %15) #9
  call void @llvm.lifetime.end.p0(i64 8, ptr %14) #9
  call void @llvm.lifetime.end.p0(i64 4, ptr %13) #9
  call void @llvm.lifetime.end.p0(i64 4, ptr %12) #9
  call void @llvm.lifetime.end.p0(i64 4, ptr %11) #9
  call void @llvm.lifetime.end.p0(i64 8, ptr %10) #9
  call void @llvm.lifetime.end.p0(i64 8, ptr %9) #9
  ret i32 0
}