; Function Attrs: nofree norecurse nosync nounwind memory(readwrite, inaccessiblemem: none) uwtable
define internal noundef i32 @median_16(ptr noundef readonly captures(none) %0, ptr noundef readonly captures(none) %1, i32 %2, i32 %3) #4 {
  %5 = getelementptr inbounds nuw i8, ptr %0, i64 72
  %6 = load ptr, ptr %5, align 8, !tbaa !4
  %7 = getelementptr inbounds nuw i8, ptr %6, i64 40
  %8 = load float, ptr %7, align 8, !tbaa !53
  %9 = getelementptr inbounds nuw i8, ptr %6, i64 72
  %10 = load i32, ptr %9, align 4, !tbaa !35
  %11 = getelementptr inbounds nuw i8, ptr %6, i64 56
  %12 = load i32, ptr %11, align 4, !tbaa !35
  %13 = getelementptr inbounds nuw i8, ptr %1, i64 68
  %14 = load i32, ptr %13, align 4, !tbaa !35
  %15 = sdiv i32 %14, 2
  %16 = sext i32 %15 to i64
  %17 = getelementptr inbounds nuw i8, ptr %1, i64 72
  %18 = load i32, ptr %17, align 8, !tbaa !35
  %19 = sdiv i32 %18, 2
  %20 = sext i32 %19 to i64
  %21 = getelementptr inbounds nuw i8, ptr %1, i64 8
  %22 = load ptr, ptr %21, align 8, !tbaa !65
  %23 = getelementptr inbounds nuw i8, ptr %1, i64 16
  %24 = load ptr, ptr %23, align 8, !tbaa !65
  %25 = getelementptr inbounds nuw i8, ptr %6, i64 88
  %26 = load ptr, ptr %25, align 8, !tbaa !54
  %27 = getelementptr inbounds nuw i8, ptr %6, i64 96
  %28 = load ptr, ptr %27, align 8, !tbaa !55
  %29 = mul nsw i32 %12, %10
  %30 = sdiv i32 %29, 2
  %31 = getelementptr inbounds nuw i8, ptr %6, i64 36
  %32 = load float, ptr %31, align 4, !tbaa !52
  %33 = fptosi float %32 to i32
  %34 = fadd nsz float %32, 1.000000e+00
  %35 = fmul nsz float %34, 4.000000e+00
  %36 = fptoui float %35 to i64
  tail call void @llvm.memset.p0.i64(ptr align 4 %26, i8 0, i64 %36, i1 false)
  %37 = load float, ptr %31, align 4, !tbaa !52
  %38 = fadd nsz float %37, 1.000000e+00
  %39 = fmul nsz float %38, 4.000000e+00
  %40 = fptoui float %39 to i64
  tail call void @llvm.memset.p0.i64(ptr align 4 %28, i8 0, i64 %40, i1 false)
  %41 = icmp sgt i32 %12, 0
  %42 = icmp sgt i32 %10, 0
  %or.cond = select i1 %41, i1 %42, i1 false
  br i1 %or.cond, label %.preheader76.us.preheader, label %.preheader

.preheader76.us.preheader:                        ; preds = %4
  %wide.trip.count = zext nneg i32 %10 to i64
  br label %.preheader76.us

.preheader76.us:                                  ; preds = %.preheader76.us.preheader, %._crit_edge.us
  %.06680.us = phi i32 [ %58, %._crit_edge.us ], [ 0, %.preheader76.us.preheader ]
  %.07179.us = phi ptr [ %56, %._crit_edge.us ], [ %22, %.preheader76.us.preheader ]
  %.07278.us = phi ptr [ %57, %._crit_edge.us ], [ %24, %.preheader76.us.preheader ]
  br label %43

43:                                               ; preds = %.preheader76.us, %43
  %indvars.iv = phi i64 [ 0, %.preheader76.us ], [ %indvars.iv.next, %43 ]
  %44 = getelementptr inbounds nuw i16, ptr %.07179.us, i64 %indvars.iv
  %45 = load i16, ptr %44, align 2, !tbaa !69
  %46 = zext i16 %45 to i64
  %47 = getelementptr inbounds nuw i32, ptr %26, i64 %46
  %48 = load i32, ptr %47, align 4, !tbaa !35
  %49 = add i32 %48, 1
  store i32 %49, ptr %47, align 4, !tbaa !35
  %50 = getelementptr inbounds nuw i16, ptr %.07278.us, i64 %indvars.iv
  %51 = load i16, ptr %50, align 2, !tbaa !69
  %52 = zext i16 %51 to i64
  %53 = getelementptr inbounds nuw i32, ptr %28, i64 %52
  %54 = load i32, ptr %53, align 4, !tbaa !35
  %55 = add i32 %54, 1
  store i32 %55, ptr %53, align 4, !tbaa !35
  %indvars.iv.next = add nuw nsw i64 %indvars.iv, 1
  %exitcond.not = icmp eq i64 %indvars.iv.next, %wide.trip.count
  br i1 %exitcond.not, label %._crit_edge.us, label %43, !llvm.loop !85

._crit_edge.us:                                   ; preds = %43
  %56 = getelementptr inbounds i16, ptr %.07179.us, i64 %16
  %57 = getelementptr inbounds i16, ptr %.07278.us, i64 %20
  %58 = add nuw nsw i32 %.06680.us, 1
  %exitcond97.not = icmp eq i32 %58, %12
  br i1 %exitcond97.not, label %.preheader, label %.preheader76.us, !llvm.loop !86

.preheader:                                       ; preds = %._crit_edge.us, %4
  %59 = load float, ptr %31, align 4, !tbaa !52
  %60 = fadd nsz float %59, 1.000000e+00
  %61 = fcmp nsz ogt float %60, 0.000000e+00
  br i1 %61, label %.lr.ph, label %._crit_edge91

.lr.ph:                                           ; preds = %.preheader, %65
  %indvars.iv98 = phi i64 [ %indvars.iv.next99, %65 ], [ 0, %.preheader ]
  %.06881 = phi i32 [ %64, %65 ], [ 0, %.preheader ]
  %62 = getelementptr inbounds nuw i32, ptr %26, i64 %indvars.iv98
  %63 = load i32, ptr %62, align 4, !tbaa !35
  %64 = add i32 %63, %.06881
  %.not = icmp ult i32 %64, %30
  br i1 %.not, label %65, label %._crit_edge.split.loop.exit106

65:                                               ; preds = %.lr.ph
  %indvars.iv.next99 = add nuw nsw i64 %indvars.iv98, 1
  %66 = trunc nuw i64 %indvars.iv.next99 to i32
  %67 = uitofp nneg i32 %66 to float
  %68 = fcmp nsz ogt float %60, %67
  br i1 %68, label %.lr.ph, label %._crit_edge, !llvm.loop !87

._crit_edge.split.loop.exit106:                   ; preds = %.lr.ph
  %69 = trunc nuw nsw i64 %indvars.iv98 to i32
  br label %._crit_edge

._crit_edge:                                      ; preds = %65, %._crit_edge.split.loop.exit106
  %.070 = phi i32 [ %69, %._crit_edge.split.loop.exit106 ], [ %33, %65 ]
  br label %.lr.ph90

.lr.ph90:                                         ; preds = %._crit_edge, %73
  %indvars.iv101 = phi i64 [ %indvars.iv.next102, %73 ], [ 0, %._crit_edge ]
  %.06787 = phi i32 [ %72, %73 ], [ 0, %._crit_edge ]
  %70 = getelementptr inbounds nuw i32, ptr %28, i64 %indvars.iv101
  %71 = load i32, ptr %70, align 4, !tbaa !35
  %72 = add i32 %71, %.06787
  %.not75 = icmp ult i32 %72, %30
  br i1 %.not75, label %73, label %._crit_edge91.loopexit.split.loop.exit

73:                                               ; preds = %.lr.ph90
  %indvars.iv.next102 = add nuw nsw i64 %indvars.iv101, 1
  %74 = trunc nuw i64 %indvars.iv.next102 to i32
  %75 = uitofp nneg i32 %74 to float
  %76 = fcmp nsz ogt float %60, %75
  br i1 %76, label %.lr.ph90, label %._crit_edge91, !llvm.loop !88

._crit_edge91.loopexit.split.loop.exit:           ; preds = %.lr.ph90
  %77 = trunc nuw nsw i64 %indvars.iv101 to i32
  br label %._crit_edge91

._crit_edge91:                                    ; preds = %73, %._crit_edge91.loopexit.split.loop.exit, %.preheader
  %.070105 = phi i32 [ %33, %.preheader ], [ %.070, %._crit_edge91.loopexit.split.loop.exit ], [ %.070, %73 ]
  %.069 = phi i32 [ %33, %.preheader ], [ %77, %._crit_edge91.loopexit.split.loop.exit ], [ %33, %73 ]
  %78 = sitofp i32 %.070105 to float
  %79 = tail call nsz float @llvm.fmuladd.f32(float %8, float %78, float -5.000000e-01)
  %80 = getelementptr inbounds nuw i8, ptr %6, i64 104
  %81 = load ptr, ptr %80, align 8, !tbaa !36
  store float %79, ptr %81, align 4, !tbaa !41
  %82 = sitofp i32 %.069 to float
  %83 = tail call nsz float @llvm.fmuladd.f32(float %8, float %82, float -5.000000e-01)
  %84 = getelementptr inbounds nuw i8, ptr %81, i64 4
  store float %83, ptr %84, align 4, !tbaa !41
  %85 = getelementptr inbounds nuw i8, ptr %81, i64 8
  store float %79, ptr %85, align 4, !tbaa !41
  %86 = getelementptr inbounds nuw i8, ptr %81, i64 12
  store float %83, ptr %86, align 4, !tbaa !41
  ret i32 0
}